; ModuleID = 'source-C-CXX/24/1353.cpp'
source_filename = "source-C-CXX/24/1353.cpp"
target datalayout = "e-m:e-p270:32:32-p271:32:32-p272:64:64-i64:64-f80:128-n8:16:32:64-S128"
target triple = "x86_64-pc-linux-gnu"

%"class.std::ios_base::Init" = type { i8 }
%"class.std::basic_istream" = type { i32 (...)**, i64, %"class.std::basic_ios" }
%"class.std::basic_ios" = type { %"class.std::ios_base", %"class.std::basic_ostream"*, i8, i8, %"class.std::basic_streambuf"*, %"class.std::ctype"*, %"class.std::num_put"*, %"class.std::num_get"* }
%"class.std::ios_base" = type { i32 (...)**, i64, i64, i32, i32, i32, %"struct.std::ios_base::_Callback_list"*, %"struct.std::ios_base::_Words", [8 x %"struct.std::ios_base::_Words"], i32, %"struct.std::ios_base::_Words"*, %"class.std::locale" }
%"struct.std::ios_base::_Callback_list" = type { %"struct.std::ios_base::_Callback_list"*, void (i32, %"class.std::ios_base"*, i32)*, i32, i32 }
%"struct.std::ios_base::_Words" = type { i8*, i64 }
%"class.std::locale" = type { %"class.std::locale::_Impl"* }
%"class.std::locale::_Impl" = type { i32, %"class.std::locale::facet"**, i64, %"class.std::locale::facet"**, i8** }
%"class.std::locale::facet" = type <{ i32 (...)**, i32, [4 x i8] }>
%"class.std::basic_ostream" = type { i32 (...)**, %"class.std::basic_ios" }
%"class.std::basic_streambuf" = type { i32 (...)**, i8*, i8*, i8*, i8*, i8*, i8*, %"class.std::locale" }
%"class.std::ctype" = type <{ %"class.std::locale::facet.base", [4 x i8], %struct.__locale_struct*, i8, [7 x i8], i32*, i32*, i16*, i8, [256 x i8], [256 x i8], i8, [6 x i8] }>
%"class.std::locale::facet.base" = type <{ i32 (...)**, i32 }>
%struct.__locale_struct = type { [13 x %struct.__locale_data*], i16*, i32*, i32*, [13 x i8*] }
%struct.__locale_data = type opaque
%"class.std::num_put" = type { %"class.std::locale::facet.base", [4 x i8] }
%"class.std::num_get" = type { %"class.std::locale::facet.base", [4 x i8] }

@_ZStL8__ioinit = internal global %"class.std::ios_base::Init" zeroinitializer, align 1
@__dso_handle = external hidden global i8
@_ZSt3cin = external global %"class.std::basic_istream", align 8
@_ZSt4cout = external global %"class.std::basic_ostream", align 8
@llvm.global_ctors = appending global [1 x { i32, void ()*, i8* }] [{ i32, void ()*, i8* } { i32 65535, void ()* @_GLOBAL__sub_I_1353.cpp, i8* null }]

declare void @_ZNSt8ios_base4InitC1Ev(%"class.std::ios_base::Init"* nonnull align 1 dereferenceable(1)) unnamed_addr #0

; Function Attrs: nounwind
declare void @_ZNSt8ios_base4InitD1Ev(%"class.std::ios_base::Init"* nonnull align 1 dereferenceable(1)) unnamed_addr #1

; Function Attrs: nofree nounwind
declare i32 @__cxa_atexit(void (i8*)*, i8*, i8*) local_unnamed_addr #2

; Function Attrs: mustprogress norecurse sspstrong uwtable
define dso_local i32 @main() local_unnamed_addr #3 {
  %1 = alloca [10000 x i32], align 16
  %2 = alloca i32, align 4
  %3 = bitcast [10000 x i32]* %1 to i8*
  call void @llvm.lifetime.start.p0i8(i64 40000, i8* nonnull %3) #8
  %4 = bitcast i32* %2 to i8*
  call void @llvm.lifetime.start.p0i8(i64 4, i8* nonnull %4) #8
  %5 = call nonnull align 8 dereferenceable(16) %"class.std::basic_istream"* @_ZNSirsERi(%"class.std::basic_istream"* nonnull align 8 dereferenceable(16) @_ZSt3cin, i32* nonnull align 4 dereferenceable(4) %2)
  %6 = getelementptr inbounds [10000 x i32], [10000 x i32]* %1, i64 0, i64 1
  %7 = bitcast i32* %6 to i8*
  call void @llvm.memset.p0i8.i64(i8* noundef nonnull align 4 dereferenceable(39996) %7, i8 0, i64 39996, i1 false)
  %8 = getelementptr inbounds [10000 x i32], [10000 x i32]* %1, i64 0, i64 0
  store i32 1, i32* %8, align 16, !tbaa !5
  %9 = load i32, i32* %2, align 4, !tbaa !5
  %10 = icmp slt i32 %9, 1
  br i1 %10, label %74, label %11

11:                                               ; preds = %0, %106
  %12 = phi i32 [ %108, %106 ], [ 1, %0 ]
  %13 = phi i32 [ %107, %106 ], [ 1, %0 ]
  %14 = icmp sgt i32 %13, 0
  br i1 %14, label %15, label %106

15:                                               ; preds = %11
  %16 = zext i32 %13 to i64
  %17 = icmp ult i32 %13, 8
  br i1 %17, label %70, label %18

18:                                               ; preds = %15
  %19 = and i64 %16, 4294967288
  %20 = add nsw i64 %19, -8
  %21 = lshr exact i64 %20, 3
  %22 = add nuw nsw i64 %21, 1
  %23 = and i64 %22, 1
  %24 = icmp eq i64 %20, 0
  br i1 %24, label %54, label %25

25:                                               ; preds = %18
  %26 = and i64 %22, 4611686018427387902
  br label %27

27:                                               ; preds = %27, %25
  %28 = phi i64 [ 0, %25 ], [ %51, %27 ]
  %29 = phi i64 [ %26, %25 ], [ %52, %27 ]
  %30 = getelementptr inbounds [10000 x i32], [10000 x i32]* %1, i64 0, i64 %28
  %31 = bitcast i32* %30 to <4 x i32>*
  %32 = load <4 x i32>, <4 x i32>* %31, align 16, !tbaa !5
  %33 = getelementptr inbounds i32, i32* %30, i64 4
  %34 = bitcast i32* %33 to <4 x i32>*
  %35 = load <4 x i32>, <4 x i32>* %34, align 16, !tbaa !5
  %36 = shl nsw <4 x i32> %32, <i32 1, i32 1, i32 1, i32 1>
  %37 = shl nsw <4 x i32> %35, <i32 1, i32 1, i32 1, i32 1>
  %38 = bitcast i32* %30 to <4 x i32>*
  store <4 x i32> %36, <4 x i32>* %38, align 16, !tbaa !5
  %39 = bitcast i32* %33 to <4 x i32>*
  store <4 x i32> %37, <4 x i32>* %39, align 16, !tbaa !5
  %40 = or i64 %28, 8
  %41 = getelementptr inbounds [10000 x i32], [10000 x i32]* %1, i64 0, i64 %40
  %42 = bitcast i32* %41 to <4 x i32>*
  %43 = load <4 x i32>, <4 x i32>* %42, align 16, !tbaa !5
  %44 = getelementptr inbounds i32, i32* %41, i64 4
  %45 = bitcast i32* %44 to <4 x i32>*
  %46 = load <4 x i32>, <4 x i32>* %45, align 16, !tbaa !5
  %47 = shl nsw <4 x i32> %43, <i32 1, i32 1, i32 1, i32 1>
  %48 = shl nsw <4 x i32> %46, <i32 1, i32 1, i32 1, i32 1>
  %49 = bitcast i32* %41 to <4 x i32>*
  store <4 x i32> %47, <4 x i32>* %49, align 16, !tbaa !5
  %50 = bitcast i32* %44 to <4 x i32>*
  store <4 x i32> %48, <4 x i32>* %50, align 16, !tbaa !5
  %51 = add nuw i64 %28, 16
  %52 = add i64 %29, -2
  %53 = icmp eq i64 %52, 0
  br i1 %53, label %54, label %27, !llvm.loop !9

54:                                               ; preds = %27, %18
  %55 = phi i64 [ 0, %18 ], [ %51, %27 ]
  %56 = icmp eq i64 %23, 0
  br i1 %56, label %68, label %57

57:                                               ; preds = %54
  %58 = getelementptr inbounds [10000 x i32], [10000 x i32]* %1, i64 0, i64 %55
  %59 = bitcast i32* %58 to <4 x i32>*
  %60 = load <4 x i32>, <4 x i32>* %59, align 16, !tbaa !5
  %61 = getelementptr inbounds i32, i32* %58, i64 4
  %62 = bitcast i32* %61 to <4 x i32>*
  %63 = load <4 x i32>, <4 x i32>* %62, align 16, !tbaa !5
  %64 = shl nsw <4 x i32> %60, <i32 1, i32 1, i32 1, i32 1>
  %65 = shl nsw <4 x i32> %63, <i32 1, i32 1, i32 1, i32 1>
  %66 = bitcast i32* %58 to <4 x i32>*
  store <4 x i32> %64, <4 x i32>* %66, align 16, !tbaa !5
  %67 = bitcast i32* %61 to <4 x i32>*
  store <4 x i32> %65, <4 x i32>* %67, align 16, !tbaa !5
  br label %68

68:                                               ; preds = %54, %57
  %69 = icmp eq i64 %19, %16
  br i1 %69, label %77, label %70

70:                                               ; preds = %15, %68
  %71 = phi i64 [ 0, %15 ], [ %19, %68 ]
  br label %78

72:                                               ; preds = %106
  %73 = icmp sgt i32 %107, 0
  br i1 %73, label %74, label %120

74:                                               ; preds = %0, %72
  %75 = phi i32 [ %107, %72 ], [ 1, %0 ]
  %76 = zext i32 %75 to i64
  br label %110

77:                                               ; preds = %78, %68
  br i1 %14, label %85, label %106

78:                                               ; preds = %70, %78
  %79 = phi i64 [ %83, %78 ], [ %71, %70 ]
  %80 = getelementptr inbounds [10000 x i32], [10000 x i32]* %1, i64 0, i64 %79
  %81 = load i32, i32* %80, align 4, !tbaa !5
  %82 = shl nsw i32 %81, 1
  store i32 %82, i32* %80, align 4, !tbaa !5
  %83 = add nuw nsw i64 %79, 1
  %84 = icmp eq i64 %83, %16
  br i1 %84, label %77, label %78, !llvm.loop !12

85:                                               ; preds = %77, %102
  %86 = phi i64 [ %91, %102 ], [ 0, %77 ]
  %87 = phi i32 [ %103, %102 ], [ %13, %77 ]
  %88 = getelementptr inbounds [10000 x i32], [10000 x i32]* %1, i64 0, i64 %86
  %89 = load i32, i32* %88, align 4, !tbaa !5
  %90 = icmp sgt i32 %89, 9
  %91 = add nuw nsw i64 %86, 1
  br i1 %90, label %92, label %102

92:                                               ; preds = %85
  %93 = getelementptr inbounds [10000 x i32], [10000 x i32]* %1, i64 0, i64 %91
  %94 = load i32, i32* %93, align 4, !tbaa !5
  %95 = udiv i32 %89, 10
  %96 = add nsw i32 %94, %95
  store i32 %96, i32* %93, align 4, !tbaa !5
  %97 = zext i32 %87 to i64
  %98 = icmp eq i64 %91, %97
  %99 = zext i1 %98 to i32
  %100 = add nsw i32 %87, %99
  %101 = urem i32 %89, 10
  store i32 %101, i32* %88, align 4, !tbaa !5
  br label %102

102:                                              ; preds = %85, %92
  %103 = phi i32 [ %100, %92 ], [ %87, %85 ]
  %104 = sext i32 %103 to i64
  %105 = icmp slt i64 %91, %104
  br i1 %105, label %85, label %106, !llvm.loop !14

106:                                              ; preds = %102, %11, %77
  %107 = phi i32 [ %13, %77 ], [ %13, %11 ], [ %103, %102 ]
  %108 = add nuw i32 %12, 1
  %109 = icmp eq i32 %12, %9
  br i1 %109, label %72, label %11, !llvm.loop !15

110:                                              ; preds = %74, %110
  %111 = phi i64 [ %76, %74 ], [ %119, %110 ]
  %112 = phi i32 [ %75, %74 ], [ %113, %110 ]
  %113 = add nsw i32 %112, -1
  %114 = zext i32 %113 to i64
  %115 = getelementptr inbounds [10000 x i32], [10000 x i32]* %1, i64 0, i64 %114
  %116 = load i32, i32* %115, align 4, !tbaa !5
  %117 = call nonnull align 8 dereferenceable(8) %"class.std::basic_ostream"* @_ZNSolsEi(%"class.std::basic_ostream"* nonnull align 8 dereferenceable(8) @_ZSt4cout, i32 %116)
  %118 = icmp sgt i64 %111, 1
  %119 = add nsw i64 %111, -1
  br i1 %118, label %110, label %120, !llvm.loop !16

120:                                              ; preds = %110, %72
  %121 = load i8*, i8** bitcast (%"class.std::basic_ostream"* @_ZSt4cout to i8**), align 8, !tbaa !17
  %122 = getelementptr i8, i8* %121, i64 -24
  %123 = bitcast i8* %122 to i64*
  %124 = load i64, i64* %123, align 8
  %125 = add nsw i64 %124, 240
  %126 = getelementptr inbounds i8, i8* bitcast (%"class.std::basic_ostream"* @_ZSt4cout to i8*), i64 %125
  %127 = bitcast i8* %126 to %"class.std::ctype"**
  %128 = load %"class.std::ctype"*, %"class.std::ctype"** %127, align 8, !tbaa !19
  %129 = icmp eq %"class.std::ctype"* %128, null
  br i1 %129, label %130, label %131

130:                                              ; preds = %120
  call void @_ZSt16__throw_bad_castv() #9
  unreachable

131:                                              ; preds = %120
  %132 = getelementptr inbounds %"class.std::ctype", %"class.std::ctype"* %128, i64 0, i32 8
  %133 = load i8, i8* %132, align 8, !tbaa !23
  %134 = icmp eq i8 %133, 0
  br i1 %134, label %138, label %135

135:                                              ; preds = %131
  %136 = getelementptr inbounds %"class.std::ctype", %"class.std::ctype"* %128, i64 0, i32 9, i64 10
  %137 = load i8, i8* %136, align 1, !tbaa !25
  br label %144

138:                                              ; preds = %131
  call void @_ZNKSt5ctypeIcE13_M_widen_initEv(%"class.std::ctype"* nonnull align 8 dereferenceable(570) %128)
  %139 = bitcast %"class.std::ctype"* %128 to i8 (%"class.std::ctype"*, i8)***
  %140 = load i8 (%"class.std::ctype"*, i8)**, i8 (%"class.std::ctype"*, i8)*** %139, align 8, !tbaa !17
  %141 = getelementptr inbounds i8 (%"class.std::ctype"*, i8)*, i8 (%"class.std::ctype"*, i8)** %140, i64 6
  %142 = load i8 (%"class.std::ctype"*, i8)*, i8 (%"class.std::ctype"*, i8)** %141, align 8
  %143 = call signext i8 %142(%"class.std::ctype"* nonnull align 8 dereferenceable(570) %128, i8 signext 10)
  br label %144

144:                                              ; preds = %135, %138
  %145 = phi i8 [ %137, %135 ], [ %143, %138 ]
  %146 = call nonnull align 8 dereferenceable(8) %"class.std::basic_ostream"* @_ZNSo3putEc(%"class.std::basic_ostream"* nonnull align 8 dereferenceable(8) @_ZSt4cout, i8 signext %145)
  %147 = call nonnull align 8 dereferenceable(8) %"class.std::basic_ostream"* @_ZNSo5flushEv(%"class.std::basic_ostream"* nonnull align 8 dereferenceable(8) %146)
  call void @llvm.lifetime.end.p0i8(i64 4, i8* nonnull %4) #8
  call void @llvm.lifetime.end.p0i8(i64 40000, i8* nonnull %3) #8
  ret i32 0
}

; Function Attrs: argmemonly mustprogress nofree nosync nounwind willreturn
declare void @llvm.lifetime.start.p0i8(i64 immarg, i8* nocapture) #4

declare nonnull align 8 dereferenceable(16) %"class.std::basic_istream"* @_ZNSirsERi(%"class.std::basic_istream"* nonnull align 8 dereferenceable(16), i32* nonnull align 4 dereferenceable(4)) local_unnamed_addr #0

; Function Attrs: argmemonly mustprogress nofree nosync nounwind willreturn
declare void @llvm.lifetime.end.p0i8(i64 immarg, i8* nocapture) #4

declare nonnull align 8 dereferenceable(8) %"class.std::basic_ostream"* @_ZNSolsEi(%"class.std::basic_ostream"* nonnull align 8 dereferenceable(8), i32) local_unnamed_addr #0

declare nonnull align 8 dereferenceable(8) %"class.std::basic_ostream"* @_ZNSo3putEc(%"class.std::basic_ostream"* nonnull align 8 dereferenceable(8), i8 signext) local_unnamed_addr #0

declare nonnull align 8 dereferenceable(8) %"class.std::basic_ostream"* @_ZNSo5flushEv(%"class.std::basic_ostream"* nonnull align 8 dereferenceable(8)) local_unnamed_addr #0

; Function Attrs: noreturn
declare void @_ZSt16__throw_bad_castv() local_unnamed_addr #5

declare void @_ZNKSt5ctypeIcE13_M_widen_initEv(%"class.std::ctype"* nonnull align 8 dereferenceable(570)) local_unnamed_addr #0

; Function Attrs: sspstrong uwtable
define internal void @_GLOBAL__sub_I_1353.cpp() #6 section ".text.startup" {
  tail call void @_ZNSt8ios_base4InitC1Ev(%"class.std::ios_base::Init"* nonnull align 1 dereferenceable(1) @_ZStL8__ioinit)
  %1 = tail call i32 @__cxa_atexit(void (i8*)* bitcast (void (%"class.std::ios_base::Init"*)* @_ZNSt8ios_base4InitD1Ev to void (i8*)*), i8* getelementptr inbounds (%"class.std::ios_base::Init", %"class.std::ios_base::Init"* @_ZStL8__ioinit, i64 0, i32 0), i8* nonnull @__dso_handle) #8
  ret void
}

; Function Attrs: argmemonly nofree nounwind willreturn writeonly
declare void @llvm.memset.p0i8.i64(i8* nocapture writeonly, i8, i64, i1 immarg) #7


!llvm.module.flags = !{!0, !1, !2, !3}
!llvm.ident = !{!4}

!0 = !{i32 1, !"wchar_size", i32 4}
!1 = !{i32 7, !"PIC Level", i32 2}
!2 = !{i32 7, !"PIE Level", i32 2}
!3 = !{i32 7, !"uwtable", i32 1}
!4 = !{!"clang version 13.0.0"}
!5 = !{!6, !6, i64 0}
!6 = !{!"int", !7, i64 0}
!7 = !{!"omnipotent char", !8, i64 0}
!8 = !{!"Simple C++ TBAA"}
!9 = distinct !{!9, !10, !11}
!10 = !{!"llvm.loop.mustprogress"}
!11 = !{!"llvm.loop.isvectorized", i32 1}
!12 = distinct !{!12, !10, !13, !11}
!13 = !{!"llvm.loop.unroll.runtime.disable"}
!14 = distinct !{!14, !10}
!15 = distinct !{!15, !10}
!16 = distinct !{!16, !10}
!17 = !{!18, !18, i64 0}
!18 = !{!"vtable pointer", !8, i64 0}
!19 = !{!20, !21, i64 240}
!20 = !{!"_ZTSSt9basic_iosIcSt11char_traitsIcEE", !21, i64 216, !7, i64 224, !22, i64 225, !21, i64 232, !21, i64 240, !21, i64 248, !21, i64 256}
!21 = !{!"any pointer", !7, i64 0}
!22 = !{!"bool", !7, i64 0}
!23 = !{!24, !7, i64 56}
!24 = !{!"_ZTSSt5ctypeIcE", !21, i64 16, !22, i64 24, !21, i64 32, !21, i64 40, !21, i64 48, !7, i64 56, !7, i64 57, !7, i64 313, !7, i64 569}
!25 = !{!7, !7, i64 0}
